ARM GAS  C:\Users\Miriam\AppData\Local\Temp\ccoMDPJi.s 			page 1


   1              		.cpu cortex-m0
   2              		.fpu softvfp
   3              		.eabi_attribute 20, 1
   4              		.eabi_attribute 21, 1
   5              		.eabi_attribute 23, 3
   6              		.eabi_attribute 24, 1
   7              		.eabi_attribute 25, 1
   8              		.eabi_attribute 26, 1
   9              		.eabi_attribute 30, 6
  10              		.eabi_attribute 34, 0
  11              		.eabi_attribute 18, 4
  12              		.code	16
  13              		.file	"CapSense_MBX.c"
  14              		.text
  15              	.Ltext0:
  16              		.cfi_sections	.debug_frame
  17              		.section	.text.CapSense_InitMailbox,"ax",%progbits
  18              		.align	2
  19              		.global	CapSense_InitMailbox
  20              		.code	16
  21              		.thumb_func
  22              		.type	CapSense_InitMailbox, %function
  23              	CapSense_InitMailbox:
  24              	.LFB33:
  25              		.file 1 ".\\Generated_Source\\PSoC4\\CapSense_MBX.c"
   1:.\Generated_Source\PSoC4/CapSense_MBX.c **** /*******************************************************************************
   2:.\Generated_Source\PSoC4/CapSense_MBX.c **** * File Name: CapSense_MBX.c
   3:.\Generated_Source\PSoC4/CapSense_MBX.c **** * Version 2.0
   4:.\Generated_Source\PSoC4/CapSense_MBX.c **** *
   5:.\Generated_Source\PSoC4/CapSense_MBX.c **** * Description:
   6:.\Generated_Source\PSoC4/CapSense_MBX.c **** *  This file provides the source code of Tuner communication APIs for the 
   7:.\Generated_Source\PSoC4/CapSense_MBX.c **** *  CapSense CSD component.
   8:.\Generated_Source\PSoC4/CapSense_MBX.c **** *
   9:.\Generated_Source\PSoC4/CapSense_MBX.c **** * Note:
  10:.\Generated_Source\PSoC4/CapSense_MBX.c **** *
  11:.\Generated_Source\PSoC4/CapSense_MBX.c **** ********************************************************************************
  12:.\Generated_Source\PSoC4/CapSense_MBX.c **** * Copyright 2014, Cypress Semiconductor Corporation.  All rights reserved.
  13:.\Generated_Source\PSoC4/CapSense_MBX.c **** * You may use this file only in accordance with the license, terms, conditions,
  14:.\Generated_Source\PSoC4/CapSense_MBX.c **** * disclaimers, and limitations in the end user license agreement accompanying
  15:.\Generated_Source\PSoC4/CapSense_MBX.c **** * the software package with which this file was provided.
  16:.\Generated_Source\PSoC4/CapSense_MBX.c **** *******************************************************************************/
  17:.\Generated_Source\PSoC4/CapSense_MBX.c **** 
  18:.\Generated_Source\PSoC4/CapSense_MBX.c **** #include "CapSense_MBX.h"
  19:.\Generated_Source\PSoC4/CapSense_MBX.c **** 
  20:.\Generated_Source\PSoC4/CapSense_MBX.c **** extern uint8 CapSense_sensorOnMask[(((CapSense_TOTAL_SENSOR_COUNT - 1u) / 8u) + 1u)];
  21:.\Generated_Source\PSoC4/CapSense_MBX.c **** extern uint16 CapSense_sensorBaseline[CapSense_TOTAL_SENSOR_COUNT];
  22:.\Generated_Source\PSoC4/CapSense_MBX.c **** extern uint8 CapSense_sensorSignal[CapSense_TOTAL_SENSOR_COUNT];
  23:.\Generated_Source\PSoC4/CapSense_MBX.c **** extern uint8 CapSense_sensorBaselineLow[CapSense_TOTAL_SENSOR_COUNT];
  24:.\Generated_Source\PSoC4/CapSense_MBX.c **** 
  25:.\Generated_Source\PSoC4/CapSense_MBX.c **** #if (CapSense_TUNING_METHOD == CapSense__TUNING_MANUAL)
  26:.\Generated_Source\PSoC4/CapSense_MBX.c ****     /*******************************************************************************
  27:.\Generated_Source\PSoC4/CapSense_MBX.c ****     * Function Name: CapSense_InitParams
  28:.\Generated_Source\PSoC4/CapSense_MBX.c ****     ********************************************************************************
  29:.\Generated_Source\PSoC4/CapSense_MBX.c ****     *
  30:.\Generated_Source\PSoC4/CapSense_MBX.c ****     * Summary:
  31:.\Generated_Source\PSoC4/CapSense_MBX.c ****     *  Configures the component parameters to match the parameters in the inbox.
  32:.\Generated_Source\PSoC4/CapSense_MBX.c ****     *  Used only in the manual tuning mode to apply new scanning parameters from the Tuner 
ARM GAS  C:\Users\Miriam\AppData\Local\Temp\ccoMDPJi.s 			page 2


  33:.\Generated_Source\PSoC4/CapSense_MBX.c ****     *  GUI.
  34:.\Generated_Source\PSoC4/CapSense_MBX.c ****     *
  35:.\Generated_Source\PSoC4/CapSense_MBX.c ****     * Parameters:
  36:.\Generated_Source\PSoC4/CapSense_MBX.c ****     *  inbox:  Pointer to Inbox structure in RAM.
  37:.\Generated_Source\PSoC4/CapSense_MBX.c ****     *
  38:.\Generated_Source\PSoC4/CapSense_MBX.c ****     * Return:
  39:.\Generated_Source\PSoC4/CapSense_MBX.c ****     *  None. Contents of the structure are not modified.
  40:.\Generated_Source\PSoC4/CapSense_MBX.c ****     * 
  41:.\Generated_Source\PSoC4/CapSense_MBX.c ****     * Global Variables:
  42:.\Generated_Source\PSoC4/CapSense_MBX.c ****     *  CapSense_idacSettings[] - used to store the idac value for all the sensors.
  43:.\Generated_Source\PSoC4/CapSense_MBX.c ****     *  CapSense_fingerThreshold[] - used to store the finger threshold for all 
  44:.\Generated_Source\PSoC4/CapSense_MBX.c ****     *  the widgets.
  45:.\Generated_Source\PSoC4/CapSense_MBX.c ****     *  CapSense_noiseThreshold[] - used to store the noise threshold for all 
  46:.\Generated_Source\PSoC4/CapSense_MBX.c ****     *  the widgets.
  47:.\Generated_Source\PSoC4/CapSense_MBX.c ****     *  CapSense_hysteresis[] - used to store the finger threshold for all 
  48:.\Generated_Source\PSoC4/CapSense_MBX.c ****     *  the widgets.
  49:.\Generated_Source\PSoC4/CapSense_MBX.c ****     *  CapSense_debounce[] - used to store the finger threshold for all the 
  50:.\Generated_Source\PSoC4/CapSense_MBX.c ****     *  widgets.
  51:.\Generated_Source\PSoC4/CapSense_MBX.c ****     *  CapSense_INBOX inbox - the structure which is used as an input buffer
  52:.\Generated_Source\PSoC4/CapSense_MBX.c ****     *  for the parameters from the Tuner GUI. Used only in the manual tuning mode.
  53:.\Generated_Source\PSoC4/CapSense_MBX.c **** 	*
  54:.\Generated_Source\PSoC4/CapSense_MBX.c **** 	* Side Effects:
  55:.\Generated_Source\PSoC4/CapSense_MBX.c **** 	*  None
  56:.\Generated_Source\PSoC4/CapSense_MBX.c **** 	* 
  57:.\Generated_Source\PSoC4/CapSense_MBX.c ****     *******************************************************************************/
  58:.\Generated_Source\PSoC4/CapSense_MBX.c ****     static void CapSense_InitParams(volatile const CapSense_INBOX *inbox);
  59:.\Generated_Source\PSoC4/CapSense_MBX.c ****     static void CapSense_InitParams(volatile const CapSense_INBOX *inbox)
  60:.\Generated_Source\PSoC4/CapSense_MBX.c ****     {
  61:.\Generated_Source\PSoC4/CapSense_MBX.c ****         /* Define widget sensor belongs to */
  62:.\Generated_Source\PSoC4/CapSense_MBX.c ****         uint8 sensor = inbox->sensorIndex;
  63:.\Generated_Source\PSoC4/CapSense_MBX.c ****         uint8 widget = CapSense_widgetNumber[sensor];
  64:.\Generated_Source\PSoC4/CapSense_MBX.c ****         
  65:.\Generated_Source\PSoC4/CapSense_MBX.c ****         /* Scanning parameters */
  66:.\Generated_Source\PSoC4/CapSense_MBX.c ****         CapSense_modulationIDAC[sensor] = inbox->idac1Settings; 
  67:.\Generated_Source\PSoC4/CapSense_MBX.c **** 
  68:.\Generated_Source\PSoC4/CapSense_MBX.c ****         #if (CapSense_IDAC_CNT == 2u)
  69:.\Generated_Source\PSoC4/CapSense_MBX.c ****             CapSense_compensationIDAC[sensor] = inbox->idac2Settings;
  70:.\Generated_Source\PSoC4/CapSense_MBX.c ****         #endif /* ( CapSense_IDAC_CNT == 2u ) */
  71:.\Generated_Source\PSoC4/CapSense_MBX.c **** 
  72:.\Generated_Source\PSoC4/CapSense_MBX.c ****         CapSense_widgetResolution[widget] = (uint32)((uint32)inbox->resolution << 
  73:.\Generated_Source\PSoC4/CapSense_MBX.c ****                                                     CapSense_MSB_RESOLUTION_OFFSET);
  74:.\Generated_Source\PSoC4/CapSense_MBX.c ****                                                     
  75:.\Generated_Source\PSoC4/CapSense_MBX.c ****         CapSense_widgetResolution[widget] |= CapSense_RESOLUTION_8_BITS;                           
  76:.\Generated_Source\PSoC4/CapSense_MBX.c **** 
  77:.\Generated_Source\PSoC4/CapSense_MBX.c ****         #if (CapSense_TOTAL_GENERICS_COUNT)
  78:.\Generated_Source\PSoC4/CapSense_MBX.c ****             /* Exclude generic widget */
  79:.\Generated_Source\PSoC4/CapSense_MBX.c ****             if(widget < CapSense_END_OF_WIDGETS_INDEX)
  80:.\Generated_Source\PSoC4/CapSense_MBX.c ****             {
  81:.\Generated_Source\PSoC4/CapSense_MBX.c ****         #endif  /* CapSense_TOTAL_GENERICS_COUNT */
  82:.\Generated_Source\PSoC4/CapSense_MBX.c ****         
  83:.\Generated_Source\PSoC4/CapSense_MBX.c ****             /* High level parameters */
  84:.\Generated_Source\PSoC4/CapSense_MBX.c ****             CapSense_fingerThreshold[widget] = inbox->fingerThreshold;
  85:.\Generated_Source\PSoC4/CapSense_MBX.c ****             CapSense_noiseThreshold[widget]  = inbox->noiseThreshold;
  86:.\Generated_Source\PSoC4/CapSense_MBX.c ****             
  87:.\Generated_Source\PSoC4/CapSense_MBX.c ****             CapSense_hysteresis[widget] = inbox->hysteresis;
  88:.\Generated_Source\PSoC4/CapSense_MBX.c ****             CapSense_debounce[widget]   = inbox->debounce;
  89:.\Generated_Source\PSoC4/CapSense_MBX.c ****         
ARM GAS  C:\Users\Miriam\AppData\Local\Temp\ccoMDPJi.s 			page 3


  90:.\Generated_Source\PSoC4/CapSense_MBX.c ****         #if (CapSense_TOTAL_GENERICS_COUNT)
  91:.\Generated_Source\PSoC4/CapSense_MBX.c ****             /* Exclude generic widget */
  92:.\Generated_Source\PSoC4/CapSense_MBX.c ****             }
  93:.\Generated_Source\PSoC4/CapSense_MBX.c ****         #endif  /* CapSense_TOTAL_GENERICS_COUNT */
  94:.\Generated_Source\PSoC4/CapSense_MBX.c **** 
  95:.\Generated_Source\PSoC4/CapSense_MBX.c ****         #if ( CapSense_MULTIPLE_FREQUENCY_SET )
  96:.\Generated_Source\PSoC4/CapSense_MBX.c ****         
  97:.\Generated_Source\PSoC4/CapSense_MBX.c ****             CapSense_senseClkDividerVal[sensor] = inbox->analogSwitchDivider;
  98:.\Generated_Source\PSoC4/CapSense_MBX.c ****             CapSense_sampleClkDividerVal[sensor] = inbox->modulatorDivider;
  99:.\Generated_Source\PSoC4/CapSense_MBX.c ****         #else
 100:.\Generated_Source\PSoC4/CapSense_MBX.c ****             CapSense_senseClkDividerVal = inbox->analogSwitchDivider;
 101:.\Generated_Source\PSoC4/CapSense_MBX.c ****             CapSense_sampleClkDividerVal = inbox->modulatorDivider;
 102:.\Generated_Source\PSoC4/CapSense_MBX.c ****         #endif /* ( CapSense_MULTIPLE_FREQUENCY_SET ) */
 103:.\Generated_Source\PSoC4/CapSense_MBX.c **** 
 104:.\Generated_Source\PSoC4/CapSense_MBX.c ****         /* Re-Init baselines */
 105:.\Generated_Source\PSoC4/CapSense_MBX.c ****         CapSense_InitializeAllBaselines();
 106:.\Generated_Source\PSoC4/CapSense_MBX.c ****     }
 107:.\Generated_Source\PSoC4/CapSense_MBX.c **** #endif  /* (CapSense_TUNING_METHOD == CapSense__TUNING_MANUAL) */
 108:.\Generated_Source\PSoC4/CapSense_MBX.c **** 
 109:.\Generated_Source\PSoC4/CapSense_MBX.c **** 
 110:.\Generated_Source\PSoC4/CapSense_MBX.c **** /*******************************************************************************
 111:.\Generated_Source\PSoC4/CapSense_MBX.c **** * Function Name: CapSense_InitMailbox
 112:.\Generated_Source\PSoC4/CapSense_MBX.c **** ********************************************************************************
 113:.\Generated_Source\PSoC4/CapSense_MBX.c **** *
 114:.\Generated_Source\PSoC4/CapSense_MBX.c **** * Summary:
 115:.\Generated_Source\PSoC4/CapSense_MBX.c **** *  Initializes parameters of the mailbox structure.
 116:.\Generated_Source\PSoC4/CapSense_MBX.c **** *  Sets the type and size of the mailbox structure. 
 117:.\Generated_Source\PSoC4/CapSense_MBX.c **** *  Sets a check sum to check by the Tuner GUI and noReadMsg flag to indicate that this 
 118:.\Generated_Source\PSoC4/CapSense_MBX.c **** *  is the first communication packet.
 119:.\Generated_Source\PSoC4/CapSense_MBX.c **** *
 120:.\Generated_Source\PSoC4/CapSense_MBX.c **** * Parameters:
 121:.\Generated_Source\PSoC4/CapSense_MBX.c **** *  mbx:  Pointer to Mailbox structure in RAM.
 122:.\Generated_Source\PSoC4/CapSense_MBX.c **** *
 123:.\Generated_Source\PSoC4/CapSense_MBX.c **** * Return:
 124:.\Generated_Source\PSoC4/CapSense_MBX.c **** *  None. Modifies the contents of mbx and mbx->outbox.
 125:.\Generated_Source\PSoC4/CapSense_MBX.c **** *
 126:.\Generated_Source\PSoC4/CapSense_MBX.c **** * Global Variables:
 127:.\Generated_Source\PSoC4/CapSense_MBX.c **** *  CapSense_MAILBOXES - the structure which incorporates two fields: 
 128:.\Generated_Source\PSoC4/CapSense_MBX.c **** *    - numMailBoxes (number of mailboxes);
 129:.\Generated_Source\PSoC4/CapSense_MBX.c **** *    - CapSense_MAILBOX csdMailbox;
 130:.\Generated_Source\PSoC4/CapSense_MBX.c **** *  CapSense_MAILBOX - the structure which incorporates a status output and
 131:.\Generated_Source\PSoC4/CapSense_MBX.c **** *  input buffer fields and CapSense_OUTBOX and CapSense_INBOX.
 132:.\Generated_Source\PSoC4/CapSense_MBX.c **** *    - type (used as the outbox read status of the Tuner GUI);
 133:.\Generated_Source\PSoC4/CapSense_MBX.c **** *    - size (used as the inbox apply status of the component);
 134:.\Generated_Source\PSoC4/CapSense_MBX.c **** *    - CapSense_OUTBOX outbox - the structure which is used as an output 
 135:.\Generated_Source\PSoC4/CapSense_MBX.c **** *      buffer to report data to the Tuner GUI.
 136:.\Generated_Source\PSoC4/CapSense_MBX.c **** *    - CapSense_INBOX inbox - the structure which is used as an input buffer
 137:.\Generated_Source\PSoC4/CapSense_MBX.c **** *      for the parameters from the Tuner GUI. Used only in the manual tuning mode.
 138:.\Generated_Source\PSoC4/CapSense_MBX.c **** *
 139:.\Generated_Source\PSoC4/CapSense_MBX.c **** * Side Effects:
 140:.\Generated_Source\PSoC4/CapSense_MBX.c **** *  None
 141:.\Generated_Source\PSoC4/CapSense_MBX.c **** * 
 142:.\Generated_Source\PSoC4/CapSense_MBX.c **** *******************************************************************************/
 143:.\Generated_Source\PSoC4/CapSense_MBX.c **** void CapSense_InitMailbox(volatile CapSense_MAILBOX *mbx)
 144:.\Generated_Source\PSoC4/CapSense_MBX.c **** {
  26              		.loc 1 144 0
  27              		.cfi_startproc
ARM GAS  C:\Users\Miriam\AppData\Local\Temp\ccoMDPJi.s 			page 4


  28 0000 80B5     		push	{r7, lr}
  29              	.LCFI0:
  30              		.cfi_def_cfa_offset 8
  31              		.cfi_offset 7, -8
  32              		.cfi_offset 14, -4
  33 0002 82B0     		sub	sp, sp, #8
  34              	.LCFI1:
  35              		.cfi_def_cfa_offset 16
  36 0004 00AF     		add	r7, sp, #0
  37              	.LCFI2:
  38              		.cfi_def_cfa_register 7
  39 0006 7860     		str	r0, [r7, #4]
 145:.\Generated_Source\PSoC4/CapSense_MBX.c ****     /* Restore TYPE_ID (clear busy flag) to indicate "action complete" */
 146:.\Generated_Source\PSoC4/CapSense_MBX.c ****     mbx->type = CapSense_TYPE_ID;
  40              		.loc 1 146 0
  41 0008 7B68     		ldr	r3, [r7, #4]
  42 000a 0422     		mov	r2, #4
  43 000c 1A70     		strb	r2, [r3]
 147:.\Generated_Source\PSoC4/CapSense_MBX.c ****     /* Restore default value - clear "have_msg" */
 148:.\Generated_Source\PSoC4/CapSense_MBX.c ****     mbx->size = sizeof(CapSense_MAILBOX);
  44              		.loc 1 148 0
  45 000e 7B68     		ldr	r3, [r7, #4]
  46 0010 5978     		ldrb	r1, [r3, #1]
  47 0012 0022     		mov	r2, #0
  48 0014 0A40     		and	r2, r1
  49 0016 1A21     		mov	r1, #26
  50 0018 0A43     		orr	r2, r1
  51 001a 5A70     		strb	r2, [r3, #1]
  52 001c 9978     		ldrb	r1, [r3, #2]
  53 001e 0022     		mov	r2, #0
  54 0020 0A40     		and	r2, r1
  55 0022 9A70     		strb	r2, [r3, #2]
 149:.\Generated_Source\PSoC4/CapSense_MBX.c ****     
 150:.\Generated_Source\PSoC4/CapSense_MBX.c ****     /* Additional fields for async and reset handling */
 151:.\Generated_Source\PSoC4/CapSense_MBX.c ****     #if(CapSense_TUNING_METHOD == CapSense__TUNING_MANUAL)
 152:.\Generated_Source\PSoC4/CapSense_MBX.c ****         mbx->outbox.noReadMsg = 1u;
 153:.\Generated_Source\PSoC4/CapSense_MBX.c ****     #endif  /* (CapSense_TUNING_METHOD == CapSense__TUNING_MANUAL) */
 154:.\Generated_Source\PSoC4/CapSense_MBX.c ****     
 155:.\Generated_Source\PSoC4/CapSense_MBX.c ****     mbx->outbox.checkSum = (uint16)(CapSense_CHECK_SUM);
  56              		.loc 1 155 0
  57 0024 7B68     		ldr	r3, [r7, #4]
  58 0026 197E     		ldrb	r1, [r3, #24]
  59 0028 0022     		mov	r2, #0
  60 002a 0A40     		and	r2, r1
  61 002c 7A21     		mov	r1, #122
  62 002e 0A43     		orr	r2, r1
  63 0030 1A76     		strb	r2, [r3, #24]
  64 0032 597E     		ldrb	r1, [r3, #25]
  65 0034 0022     		mov	r2, #0
  66 0036 0A40     		and	r2, r1
  67 0038 0E21     		mov	r1, #14
  68 003a 0A43     		orr	r2, r1
  69 003c 5A76     		strb	r2, [r3, #25]
 156:.\Generated_Source\PSoC4/CapSense_MBX.c **** }
  70              		.loc 1 156 0
  71 003e BD46     		mov	sp, r7
  72 0040 02B0     		add	sp, sp, #8
ARM GAS  C:\Users\Miriam\AppData\Local\Temp\ccoMDPJi.s 			page 5


  73              		@ sp needed for prologue
  74 0042 80BD     		pop	{r7, pc}
  75              		.cfi_endproc
  76              	.LFE33:
  77              		.size	CapSense_InitMailbox, .-CapSense_InitMailbox
  78              		.section	.text.CapSense_PostMessage,"ax",%progbits
  79              		.align	2
  80              		.global	CapSense_PostMessage
  81              		.code	16
  82              		.thumb_func
  83              		.type	CapSense_PostMessage, %function
  84              	CapSense_PostMessage:
  85              	.LFB34:
 157:.\Generated_Source\PSoC4/CapSense_MBX.c **** 
 158:.\Generated_Source\PSoC4/CapSense_MBX.c **** 
 159:.\Generated_Source\PSoC4/CapSense_MBX.c **** /*******************************************************************************
 160:.\Generated_Source\PSoC4/CapSense_MBX.c **** * Function Name:  CapSense_PostMessage
 161:.\Generated_Source\PSoC4/CapSense_MBX.c **** ********************************************************************************
 162:.\Generated_Source\PSoC4/CapSense_MBX.c **** *
 163:.\Generated_Source\PSoC4/CapSense_MBX.c **** * Summary:
 164:.\Generated_Source\PSoC4/CapSense_MBX.c **** *  This blocking function waits while the Tuner GUI reports that the mailbox content
 165:.\Generated_Source\PSoC4/CapSense_MBX.c **** *  could be modified (clears CapSense_BUSY_FLAG). Then loads the report 
 166:.\Generated_Source\PSoC4/CapSense_MBX.c **** *  data to the outbox and sets a busy flag.
 167:.\Generated_Source\PSoC4/CapSense_MBX.c **** *  In the manual tuning mode the report data is:
 168:.\Generated_Source\PSoC4/CapSense_MBX.c **** *    - raw data, baseline, signal;
 169:.\Generated_Source\PSoC4/CapSense_MBX.c **** *  In the auto tuning mode the added data is:
 170:.\Generated_Source\PSoC4/CapSense_MBX.c **** *    - fingerThreshold;
 171:.\Generated_Source\PSoC4/CapSense_MBX.c **** *    - noiseThreshold;
 172:.\Generated_Source\PSoC4/CapSense_MBX.c **** *    - scanResolution;
 173:.\Generated_Source\PSoC4/CapSense_MBX.c **** *    - idacValue;
 174:.\Generated_Source\PSoC4/CapSense_MBX.c **** *    - prescaler.
 175:.\Generated_Source\PSoC4/CapSense_MBX.c **** *
 176:.\Generated_Source\PSoC4/CapSense_MBX.c **** * Parameters:
 177:.\Generated_Source\PSoC4/CapSense_MBX.c **** *  mbx:  Pointer to Mailbox structure in RAM.
 178:.\Generated_Source\PSoC4/CapSense_MBX.c **** *
 179:.\Generated_Source\PSoC4/CapSense_MBX.c **** * Return:
 180:.\Generated_Source\PSoC4/CapSense_MBX.c **** *  None. Modifies the contents of mbx->outbox.
 181:.\Generated_Source\PSoC4/CapSense_MBX.c **** *
 182:.\Generated_Source\PSoC4/CapSense_MBX.c **** * Global Variables:
 183:.\Generated_Source\PSoC4/CapSense_MBX.c **** *  CapSense_MAILBOXES - the structure which incorporates two fields: 
 184:.\Generated_Source\PSoC4/CapSense_MBX.c **** *    - numMailBoxes (number of mailboxes);
 185:.\Generated_Source\PSoC4/CapSense_MBX.c **** *    - CapSense_MAILBOX csdMailbox;
 186:.\Generated_Source\PSoC4/CapSense_MBX.c **** *  CapSense_MAILBOX - the structure which incorporates the status output and
 187:.\Generated_Source\PSoC4/CapSense_MBX.c **** *  input buffer fields and CapSense_OUTBOX and CapSense_INBOX.
 188:.\Generated_Source\PSoC4/CapSense_MBX.c **** *    - type (used as the  outbox read status of the Tuner GUI);
 189:.\Generated_Source\PSoC4/CapSense_MBX.c **** *    - size (used as the inbox apply status of the component);
 190:.\Generated_Source\PSoC4/CapSense_MBX.c **** *    - CapSense_OUTBOX outbox - the structure which is used as an output 
 191:.\Generated_Source\PSoC4/CapSense_MBX.c **** *      buffer to report data to the Tuner GUI.
 192:.\Generated_Source\PSoC4/CapSense_MBX.c **** *    - CapSense_INBOX inbox - the structure which is used as an input buffer
 193:.\Generated_Source\PSoC4/CapSense_MBX.c **** *      for parameters from the Tuner GUI. Used only in the manual tuning mode.
 194:.\Generated_Source\PSoC4/CapSense_MBX.c **** *  CapSense_lowLevelTuningDone - used to notify the Tuner GUI that 
 195:.\Generated_Source\PSoC4/CapSense_MBX.c **** *  tuning of the scanning parameters is done. The scanning parameters in the mailbox
 196:.\Generated_Source\PSoC4/CapSense_MBX.c **** *  will not be updated after clearing it.
 197:.\Generated_Source\PSoC4/CapSense_MBX.c **** *
 198:.\Generated_Source\PSoC4/CapSense_MBX.c **** * Side Effects:
 199:.\Generated_Source\PSoC4/CapSense_MBX.c **** *  None
 200:.\Generated_Source\PSoC4/CapSense_MBX.c **** *
ARM GAS  C:\Users\Miriam\AppData\Local\Temp\ccoMDPJi.s 			page 6


 201:.\Generated_Source\PSoC4/CapSense_MBX.c **** *******************************************************************************/
 202:.\Generated_Source\PSoC4/CapSense_MBX.c **** void CapSense_PostMessage(volatile CapSense_MAILBOX *mbx)
 203:.\Generated_Source\PSoC4/CapSense_MBX.c **** {
  86              		.loc 1 203 0
  87              		.cfi_startproc
  88 0000 F0B5     		push	{r4, r5, r6, r7, lr}
  89              	.LCFI3:
  90              		.cfi_def_cfa_offset 20
  91              		.cfi_offset 4, -20
  92              		.cfi_offset 5, -16
  93              		.cfi_offset 6, -12
  94              		.cfi_offset 7, -8
  95              		.cfi_offset 14, -4
  96 0002 85B0     		sub	sp, sp, #20
  97              	.LCFI4:
  98              		.cfi_def_cfa_offset 40
  99 0004 00AF     		add	r7, sp, #0
 100              	.LCFI5:
 101              		.cfi_def_cfa_register 7
 102 0006 7860     		str	r0, [r7, #4]
 204:.\Generated_Source\PSoC4/CapSense_MBX.c ****     uint8 i;
 205:.\Generated_Source\PSoC4/CapSense_MBX.c **** 
 206:.\Generated_Source\PSoC4/CapSense_MBX.c ****     /* Check busy flag */
 207:.\Generated_Source\PSoC4/CapSense_MBX.c ****     while (mbx->type != CapSense_TYPE_ID){;}
 103              		.loc 1 207 0
 104 0008 C046     		mov	r8, r8
 105              	.L3:
 106              		.loc 1 207 0 is_stmt 0 discriminator 1
 107 000a 7B68     		ldr	r3, [r7, #4]
 108 000c 1B78     		ldrb	r3, [r3]
 109 000e DBB2     		uxtb	r3, r3
 110 0010 042B     		cmp	r3, #4
 111 0012 FAD1     		bne	.L3
 208:.\Generated_Source\PSoC4/CapSense_MBX.c **** 
 209:.\Generated_Source\PSoC4/CapSense_MBX.c ****     /* Copy all data - Raw, Base, Signal, OnMask */
 210:.\Generated_Source\PSoC4/CapSense_MBX.c ****     for(i=0u; i < CapSense_TOTAL_SENSOR_COUNT; i++)
 112              		.loc 1 210 0 is_stmt 1
 113 0014 3B1C     		mov	r3, r7
 114 0016 0F33     		add	r3, r3, #15
 115 0018 0022     		mov	r2, #0
 116 001a 1A70     		strb	r2, [r3]
 117 001c 4EE0     		b	.L4
 118              	.L5:
 211:.\Generated_Source\PSoC4/CapSense_MBX.c ****     {
 212:.\Generated_Source\PSoC4/CapSense_MBX.c ****         mbx->outbox.rawData[i]  = CapSense_sensorRaw[i];
 119              		.loc 1 212 0 discriminator 2
 120 001e 3B1C     		mov	r3, r7
 121 0020 0F33     		add	r3, r3, #15
 122 0022 1B78     		ldrb	r3, [r3]
 123 0024 3A1C     		mov	r2, r7
 124 0026 0F32     		add	r2, r2, #15
 125 0028 1178     		ldrb	r1, [r2]
 126 002a 2A4A     		ldr	r2, .L6
 127 002c 4900     		lsl	r1, r1, #1
 128 002e 895A     		ldrh	r1, [r1, r2]
 129 0030 7A68     		ldr	r2, [r7, #4]
 130 0032 5B00     		lsl	r3, r3, #1
ARM GAS  C:\Users\Miriam\AppData\Local\Temp\ccoMDPJi.s 			page 7


 131 0034 FF20     		mov	r0, #255
 132 0036 0C1C     		mov	r4, r1
 133 0038 0440     		and	r4, r0
 134 003a D018     		add	r0, r2, r3
 135 003c C678     		ldrb	r6, [r0, #3]
 136 003e 0025     		mov	r5, #0
 137 0040 3540     		and	r5, r6
 138 0042 2C43     		orr	r4, r5
 139 0044 C470     		strb	r4, [r0, #3]
 140 0046 090A     		lsr	r1, r1, #8
 141 0048 88B2     		uxth	r0, r1
 142 004a D318     		add	r3, r2, r3
 143 004c 1979     		ldrb	r1, [r3, #4]
 144 004e 0022     		mov	r2, #0
 145 0050 0A40     		and	r2, r1
 146 0052 111C     		add	r1, r2, #0
 147 0054 021C     		add	r2, r0, #0
 148 0056 0A43     		orr	r2, r1
 149 0058 1A71     		strb	r2, [r3, #4]
 213:.\Generated_Source\PSoC4/CapSense_MBX.c ****         mbx->outbox.baseLine[i] = CapSense_sensorBaseline[i];
 150              		.loc 1 213 0 discriminator 2
 151 005a 3B1C     		mov	r3, r7
 152 005c 0F33     		add	r3, r3, #15
 153 005e 1B78     		ldrb	r3, [r3]
 154 0060 3A1C     		mov	r2, r7
 155 0062 0F32     		add	r2, r2, #15
 156 0064 1178     		ldrb	r1, [r2]
 157 0066 1C4A     		ldr	r2, .L6+4
 158 0068 4900     		lsl	r1, r1, #1
 159 006a 895A     		ldrh	r1, [r1, r2]
 160 006c 7A68     		ldr	r2, [r7, #4]
 161 006e 0433     		add	r3, r3, #4
 162 0070 5B00     		lsl	r3, r3, #1
 163 0072 FF20     		mov	r0, #255
 164 0074 0C1C     		mov	r4, r1
 165 0076 0440     		and	r4, r0
 166 0078 D018     		add	r0, r2, r3
 167 007a C678     		ldrb	r6, [r0, #3]
 168 007c 0025     		mov	r5, #0
 169 007e 3540     		and	r5, r6
 170 0080 2C43     		orr	r4, r5
 171 0082 C470     		strb	r4, [r0, #3]
 172 0084 090A     		lsr	r1, r1, #8
 173 0086 88B2     		uxth	r0, r1
 174 0088 D318     		add	r3, r2, r3
 175 008a 1979     		ldrb	r1, [r3, #4]
 176 008c 0022     		mov	r2, #0
 177 008e 0A40     		and	r2, r1
 178 0090 111C     		add	r1, r2, #0
 179 0092 021C     		add	r2, r0, #0
 180 0094 0A43     		orr	r2, r1
 181 0096 1A71     		strb	r2, [r3, #4]
 214:.\Generated_Source\PSoC4/CapSense_MBX.c ****         #if (CapSense_SIGNAL_SIZE == CapSense_SIGNAL_SIZE_UINT8)
 215:.\Generated_Source\PSoC4/CapSense_MBX.c ****             mbx->outbox.signal[i]   = (uint8)CapSense_sensorSignal[i];
 182              		.loc 1 215 0 discriminator 2
 183 0098 3B1C     		mov	r3, r7
 184 009a 0F33     		add	r3, r3, #15
ARM GAS  C:\Users\Miriam\AppData\Local\Temp\ccoMDPJi.s 			page 8


 185 009c 1B78     		ldrb	r3, [r3]
 186 009e 3A1C     		mov	r2, r7
 187 00a0 0F32     		add	r2, r2, #15
 188 00a2 1278     		ldrb	r2, [r2]
 189 00a4 0D49     		ldr	r1, .L6+8
 190 00a6 8A5C     		ldrb	r2, [r1, r2]
 191 00a8 7968     		ldr	r1, [r7, #4]
 192 00aa CB18     		add	r3, r1, r3
 193 00ac DA74     		strb	r2, [r3, #19]
 210:.\Generated_Source\PSoC4/CapSense_MBX.c ****     for(i=0u; i < CapSense_TOTAL_SENSOR_COUNT; i++)
 194              		.loc 1 210 0 discriminator 2
 195 00ae 3B1C     		mov	r3, r7
 196 00b0 0F33     		add	r3, r3, #15
 197 00b2 3A1C     		mov	r2, r7
 198 00b4 0F32     		add	r2, r2, #15
 199 00b6 1278     		ldrb	r2, [r2]
 200 00b8 0132     		add	r2, r2, #1
 201 00ba 1A70     		strb	r2, [r3]
 202              	.L4:
 210:.\Generated_Source\PSoC4/CapSense_MBX.c ****     for(i=0u; i < CapSense_TOTAL_SENSOR_COUNT; i++)
 203              		.loc 1 210 0 is_stmt 0 discriminator 1
 204 00bc 3B1C     		mov	r3, r7
 205 00be 0F33     		add	r3, r3, #15
 206 00c0 1B78     		ldrb	r3, [r3]
 207 00c2 032B     		cmp	r3, #3
 208 00c4 ABD9     		bls	.L5
 216:.\Generated_Source\PSoC4/CapSense_MBX.c ****         #else
 217:.\Generated_Source\PSoC4/CapSense_MBX.c ****             mbx->outbox.signal[i]   = (uint16)CapSense_sensorSignal[i];
 218:.\Generated_Source\PSoC4/CapSense_MBX.c ****         #endif  /* (CapSense_SIGNAL_SIZE == CapSense_SIGNAL_SIZE_UINT8) */
 219:.\Generated_Source\PSoC4/CapSense_MBX.c ****     }
 220:.\Generated_Source\PSoC4/CapSense_MBX.c ****         
 221:.\Generated_Source\PSoC4/CapSense_MBX.c ****     /* AutoTuning - need to copy all High Level parameters */
 222:.\Generated_Source\PSoC4/CapSense_MBX.c ****     #if (CapSense_TUNING_METHOD == CapSense__TUNING_AUTO)
 223:.\Generated_Source\PSoC4/CapSense_MBX.c ****         
 224:.\Generated_Source\PSoC4/CapSense_MBX.c ****         /* Parameters are changed in run time */
 225:.\Generated_Source\PSoC4/CapSense_MBX.c ****         for(i=0u; i < CapSense_WIDGET_CSHL_PARAMETERS_COUNT; i++)
 226:.\Generated_Source\PSoC4/CapSense_MBX.c ****         {
 227:.\Generated_Source\PSoC4/CapSense_MBX.c ****             mbx->outbox.fingerThreshold[i] = CapSense_fingerThreshold[i];
 228:.\Generated_Source\PSoC4/CapSense_MBX.c ****             mbx->outbox.noiseThreshold[i]  = CapSense_noiseThreshold[i];
 229:.\Generated_Source\PSoC4/CapSense_MBX.c ****         }
 230:.\Generated_Source\PSoC4/CapSense_MBX.c ****         
 231:.\Generated_Source\PSoC4/CapSense_MBX.c ****         /* Widget resolution, take to account TP and MB */
 232:.\Generated_Source\PSoC4/CapSense_MBX.c ****         for(i=0u; i < CapSense_WIDGET_RESOLUTION_PARAMETERS_COUNT; i++)
 233:.\Generated_Source\PSoC4/CapSense_MBX.c ****         {
 234:.\Generated_Source\PSoC4/CapSense_MBX.c ****             mbx->outbox.scanResolution[i]  = (uint8)(CapSense_widgetResolution[i] >> CapSense_MSB_R
 235:.\Generated_Source\PSoC4/CapSense_MBX.c ****         }
 236:.\Generated_Source\PSoC4/CapSense_MBX.c **** 
 237:.\Generated_Source\PSoC4/CapSense_MBX.c ****         /* Copy tuned idac values */
 238:.\Generated_Source\PSoC4/CapSense_MBX.c ****         for(i=0u; i < CapSense_TOTAL_SENSOR_COUNT; i++)
 239:.\Generated_Source\PSoC4/CapSense_MBX.c ****         {
 240:.\Generated_Source\PSoC4/CapSense_MBX.c ****             mbx->outbox.idac1Value[i] = CapSense_modulationIDAC[i];
 241:.\Generated_Source\PSoC4/CapSense_MBX.c **** 			#if (CapSense_IDAC_CNT == 2u)
 242:.\Generated_Source\PSoC4/CapSense_MBX.c ****             	mbx->outbox.idac2Value[i] = CapSense_compensationIDAC[i];
 243:.\Generated_Source\PSoC4/CapSense_MBX.c **** 			#endif /* (CapSense_IDAC_CNT == 2u) */	
 244:.\Generated_Source\PSoC4/CapSense_MBX.c ****         }
 245:.\Generated_Source\PSoC4/CapSense_MBX.c ****             
 246:.\Generated_Source\PSoC4/CapSense_MBX.c ****         /* Pass parameters only once */
ARM GAS  C:\Users\Miriam\AppData\Local\Temp\ccoMDPJi.s 			page 9


 247:.\Generated_Source\PSoC4/CapSense_MBX.c ****         CapSense_lowLevelTuningDone = 0u;
 248:.\Generated_Source\PSoC4/CapSense_MBX.c ****     #endif  /* (CapSense_TUNING_METHOD == CapSense__TUNING_MANUAL) */
 249:.\Generated_Source\PSoC4/CapSense_MBX.c **** 
 250:.\Generated_Source\PSoC4/CapSense_MBX.c ****     /* Copy scan parameters */
 251:.\Generated_Source\PSoC4/CapSense_MBX.c ****     #if ( CapSense_TUNING_METHOD == CapSense__TUNING_AUTO )
 252:.\Generated_Source\PSoC4/CapSense_MBX.c ****         for(i=0u; i < CapSense_TOTAL_SCANSLOT_COUNT; i++)
 253:.\Generated_Source\PSoC4/CapSense_MBX.c ****         {
 254:.\Generated_Source\PSoC4/CapSense_MBX.c ****             mbx->outbox.analogSwitchDivider[i] = CapSense_senseClkDividerVal[i];
 255:.\Generated_Source\PSoC4/CapSense_MBX.c ****             mbx->outbox.modulatorDivider[i] = CapSense_sampleClkDividerVal;
 256:.\Generated_Source\PSoC4/CapSense_MBX.c ****         }
 257:.\Generated_Source\PSoC4/CapSense_MBX.c ****     #endif /* (CapSense_TUNING_METHOD == CapSense__TUNING_AUTO) */
 258:.\Generated_Source\PSoC4/CapSense_MBX.c **** 
 259:.\Generated_Source\PSoC4/CapSense_MBX.c ****     /* Set busy flag */
 260:.\Generated_Source\PSoC4/CapSense_MBX.c ****     mbx->type = CapSense_BUSY_FLAG;
 209              		.loc 1 260 0 is_stmt 1
 210 00c6 7B68     		ldr	r3, [r7, #4]
 211 00c8 8422     		mov	r2, #132
 212 00ca 1A70     		strb	r2, [r3]
 261:.\Generated_Source\PSoC4/CapSense_MBX.c **** }
 213              		.loc 1 261 0
 214 00cc BD46     		mov	sp, r7
 215 00ce 05B0     		add	sp, sp, #20
 216              		@ sp needed for prologue
 217 00d0 F0BD     		pop	{r4, r5, r6, r7, pc}
 218              	.L7:
 219 00d2 C046     		.align	2
 220              	.L6:
 221 00d4 00000000 		.word	CapSense_sensorRaw
 222 00d8 00000000 		.word	CapSense_sensorBaseline
 223 00dc 00000000 		.word	CapSense_sensorSignal
 224              		.cfi_endproc
 225              	.LFE34:
 226              		.size	CapSense_PostMessage, .-CapSense_PostMessage
 227              		.text
 228              	.Letext0:
 229              		.file 2 ".\\Generated_Source\\PSoC4\\cytypes.h"
 230              		.file 3 ".\\Generated_Source\\PSoC4\\CapSense_MBX.h"
 231              		.file 4 ".\\Generated_Source\\PSoC4\\CapSense.h"