ARM GAS  C:\Users\Miriam\AppData\Local\Temp\ccrkoeGt.s 			page 1


   1              		.cpu cortex-m0
   2              		.fpu softvfp
   3              		.eabi_attribute 20, 1
   4              		.eabi_attribute 21, 1
   5              		.eabi_attribute 23, 3
   6              		.eabi_attribute 24, 1
   7              		.eabi_attribute 25, 1
   8              		.eabi_attribute 26, 1
   9              		.eabi_attribute 30, 6
  10              		.eabi_attribute 34, 0
  11              		.eabi_attribute 18, 4
  12              		.code	16
  13              		.file	"main.c"
  14              		.text
  15              	.Ltext0:
  16              		.cfi_sections	.debug_frame
  17              		.comm	capValue,8,4
  18              		.comm	k,4,4
  19              		.comm	buffer,64,4
  20              		.section	.rodata
  21              		.align	2
  22              	.LC3:
  23 0000 25752025 		.ascii	"%u %u %u %u\000"
  23      75202575 
  23      20257500 
  24              		.section	.text.main,"ax",%progbits
  25              		.align	2
  26              		.global	main
  27              		.code	16
  28              		.thumb_func
  29              		.type	main, %function
  30              	main:
  31              	.LFB33:
  32              		.file 1 ".\\main.c"
   1:.\main.c      **** /******************************************************************************
   2:.\main.c      **** * Project Name		: USB-UART
   3:.\main.c      **** * File Name			: main.c
   4:.\main.c      **** * Version 			: 1.0
   5:.\main.c      **** * Device Used		: CY8C4245AXI-483
   6:.\main.c      **** * Software Used		: PSoC Creator 2.2 SP1
   7:.\main.c      **** * Compiler    		: ARMGCC 4.4.1
   8:.\main.c      **** * Related Hardware	: CY8CKIT-042 PSoC 4 Pioneer Kit 
   9:.\main.c      **** *
  10:.\main.c      **** ******************************************************************************
  11:.\main.c      **** * ========================================
  12:.\main.c      **** *
  13:.\main.c      **** The following firmware was developed by Cypress Semiconductor
  14:.\main.c      **** This work is licensed under a Creative Commons Attribution 3.0 Unported License.
  15:.\main.c      **** http://creativecommons.org/licenses/by/3.0/deed.en_US
  16:.\main.c      **** You are free to:
  17:.\main.c      **** -To Share — to copy, distribute and transmit the work 
  18:.\main.c      **** -To Remix — to adapt the work 
  19:.\main.c      **** -To make commercial use of the work
  20:.\main.c      **** * ========================================
  21:.\main.c      **** *
  22:.\main.c      **** ******************************************************************************
  23:.\main.c      **** *                           THEORY OF OPERATION
ARM GAS  C:\Users\Miriam\AppData\Local\Temp\ccrkoeGt.s 			page 2


  24:.\main.c      **** * This project demonstrates UART communication over the kit USB-UART Bridge. 
  25:.\main.c      **** * The project uses the SCB based UART component which sends the string
  26:.\main.c      **** * "CY8CKIT-042 USB-UART" and loops back the data sent over the COM terminal software.
  27:.\main.c      **** * 
  28:.\main.c      **** * UART is configured with
  29:.\main.c      **** * UART Basic
  30:.\main.c      **** * 	Mode: Standard
  31:.\main.c      **** * 	Direction: TX+RX
  32:.\main.c      **** * 	Baud rate (kbps): 9600
  33:.\main.c      **** * 	Data bits: 8 bits
  34:.\main.c      **** * 	Parity: None
  35:.\main.c      **** * 	Stop bits: 1 bit
  36:.\main.c      **** * 	Physical connections needed:
  37:.\main.c      **** * 	Jumper between P0[5] and PSoC 5LP Header J8 P12[6]
  38:.\main.c      **** * UART Advanced
  39:.\main.c      **** * 	RX buffer size: 8
  40:.\main.c      **** * 	TX buffer size: 8
  41:.\main.c      **** * 	Interrupt: None
  42:.\main.c      **** *
  43:.\main.c      **** * Physical Connetion
  44:.\main.c      **** * Connect jumper wire from the UART RX (P0[4]) of PSoC 4 to J8_10 (P12[7]) of PSoC 5LP
  45:.\main.c      **** * Connect jumper wire from the UART TX (P0[5]) of PSoC 4 to J8_9 (P12[6]) of PSoC 5LP
  46:.\main.c      **** * ******************************************************************************/ 
  47:.\main.c      **** #include <device.h>
  48:.\main.c      **** #include <stdlib.h>
  49:.\main.c      **** 
  50:.\main.c      **** #define numSense 4
  51:.\main.c      **** 
  52:.\main.c      **** uint16 capValue[numSense];
  53:.\main.c      **** int k;
  54:.\main.c      **** char buffer[64];
  55:.\main.c      **** 
  56:.\main.c      **** void main()
  57:.\main.c      **** {   
  33              		.loc 1 57 0
  34              		.cfi_startproc
  35 0000 B0B5     		push	{r4, r5, r7, lr}
  36              	.LCFI0:
  37              		.cfi_def_cfa_offset 16
  38              		.cfi_offset 4, -16
  39              		.cfi_offset 5, -12
  40              		.cfi_offset 7, -8
  41              		.cfi_offset 14, -4
  42 0002 82B0     		sub	sp, sp, #8
  43              	.LCFI1:
  44              		.cfi_def_cfa_offset 24
  45 0004 02AF     		add	r7, sp, #8
  46              	.LCFI2:
  47              		.cfi_def_cfa 7, 16
  58:.\main.c      ****     uint8 ch;
  59:.\main.c      **** 
  60:.\main.c      ****     /* Start SCB UART TX+RX operation */    
  61:.\main.c      ****     UART_Start(); 
  48              		.loc 1 61 0
  49 0006 FFF7FEFF 		bl	UART_Start
  62:.\main.c      ****     CyGlobalIntEnable;
  50              		.loc 1 62 0
ARM GAS  C:\Users\Miriam\AppData\Local\Temp\ccrkoeGt.s 			page 3


  51              	@ 62 ".\main.c" 1
  52 000a 62B6     		CPSIE   i
  53              	@ 0 "" 2
  63:.\main.c      ****     CapSense_Start();
  54              		.loc 1 63 0
  55              		.code	16
  56 000c FFF7FEFF 		bl	CapSense_Start
  57              	.L5:
  58              	.LBB2:
  64:.\main.c      ****    // CapSense_TunerStart();
  65:.\main.c      ****     // go into TunerComm 
  66:.\main.c      ****     /*for(;;){
  67:.\main.c      **** CapSense_TunerComm();
  68:.\main.c      ****     };
  69:.\main.c      ****     */
  70:.\main.c      ****     // return our values from SensePins via buffer
  71:.\main.c      ****     for(;;)
  72:.\main.c      ****     {
  73:.\main.c      ****         CapSense_ScanEnabledWidgets();
  59              		.loc 1 73 0
  60 0010 FFF7FEFF 		bl	CapSense_ScanEnabledWidgets
  74:.\main.c      ****             while(CapSense_IsBusy() != 0);
  61              		.loc 1 74 0
  62 0014 C046     		mov	r8, r8
  63              	.L2:
  64              		.loc 1 74 0 is_stmt 0 discriminator 1
  65 0016 FFF7FEFF 		bl	CapSense_IsBusy
  66 001a 031C     		mov	r3, r0
  67 001c 002B     		cmp	r3, #0
  68 001e FAD1     		bne	.L2
  75:.\main.c      ****         
  76:.\main.c      ****             for(k=0; k < numSense; k++){
  69              		.loc 1 76 0 is_stmt 1
  70 0020 184B     		ldr	r3, .L6
  71 0022 0022     		mov	r2, #0
  72 0024 1A60     		str	r2, [r3]
  73 0026 10E0     		b	.L3
  74              	.L4:
  77:.\main.c      ****             capValue[k] = CapSense_ReadSensorRaw(k);
  75              		.loc 1 77 0 discriminator 2
  76 0028 164B     		ldr	r3, .L6
  77 002a 1C68     		ldr	r4, [r3]
  78 002c 154B     		ldr	r3, .L6
  79 002e 1B68     		ldr	r3, [r3]
  80 0030 181C     		mov	r0, r3
  81 0032 FFF7FEFF 		bl	CapSense_ReadSensorRaw
  82 0036 031C     		mov	r3, r0
  83 0038 191C     		mov	r1, r3
  84 003a 134B     		ldr	r3, .L6+4
  85 003c 6200     		lsl	r2, r4, #1
  86 003e D152     		strh	r1, [r2, r3]
  76:.\main.c      ****             for(k=0; k < numSense; k++){
  87              		.loc 1 76 0 discriminator 2
  88 0040 104B     		ldr	r3, .L6
  89 0042 1B68     		ldr	r3, [r3]
  90 0044 5A1C     		add	r2, r3, #1
  91 0046 0F4B     		ldr	r3, .L6
ARM GAS  C:\Users\Miriam\AppData\Local\Temp\ccrkoeGt.s 			page 4


  92 0048 1A60     		str	r2, [r3]
  93              	.L3:
  76:.\main.c      ****             for(k=0; k < numSense; k++){
  94              		.loc 1 76 0 is_stmt 0 discriminator 1
  95 004a 0E4B     		ldr	r3, .L6
  96 004c 1B68     		ldr	r3, [r3]
  97 004e 032B     		cmp	r3, #3
  98 0050 EADD     		ble	.L4
  78:.\main.c      ****         };
  79:.\main.c      **** 
  80:.\main.c      ****         sprintf(buffer, "%u %u %u %u", capValue[0], capValue[1], capValue[2], capValue[3]);
  99              		.loc 1 80 0 is_stmt 1
 100 0052 0D4B     		ldr	r3, .L6+4
 101 0054 1B88     		ldrh	r3, [r3]
 102 0056 1A1C     		mov	r2, r3
 103 0058 0B4B     		ldr	r3, .L6+4
 104 005a 5B88     		ldrh	r3, [r3, #2]
 105 005c 0A49     		ldr	r1, .L6+4
 106 005e 8988     		ldrh	r1, [r1, #4]
 107 0060 0D1C     		mov	r5, r1
 108 0062 0949     		ldr	r1, .L6+4
 109 0064 C988     		ldrh	r1, [r1, #6]
 110 0066 0C1C     		mov	r4, r1
 111 0068 0848     		ldr	r0, .L6+8
 112 006a 0949     		ldr	r1, .L6+12
 113 006c 0095     		str	r5, [sp]
 114 006e 0194     		str	r4, [sp, #4]
 115 0070 FFF7FEFF 		bl	sprintf
  81:.\main.c      ****         
  82:.\main.c      ****         // return values
  83:.\main.c      ****         UART_UartPutString(buffer);
 116              		.loc 1 83 0
 117 0074 054B     		ldr	r3, .L6+8
 118 0076 181C     		mov	r0, r3
 119 0078 FFF7FEFF 		bl	UART_UartPutString
  84:.\main.c      ****         UART_UartPutChar(10);
 120              		.loc 1 84 0
 121 007c 0A20     		mov	r0, #10
 122 007e FFF7FEFF 		bl	UART_SpiUartWriteTxData
 123              	.LBE2:
  85:.\main.c      ****    
  86:.\main.c      ****     }
 124              		.loc 1 86 0
 125 0082 C5E7     		b	.L5
 126              	.L7:
 127              		.align	2
 128              	.L6:
 129 0084 00000000 		.word	k
 130 0088 00000000 		.word	capValue
 131 008c 00000000 		.word	buffer
 132 0090 00000000 		.word	.LC3
 133              		.cfi_endproc
 134              	.LFE33:
 135              		.size	main, .-main
 136              		.text
 137              	.Letext0:
 138              		.file 2 "./Generated_Source/PSoC4/cytypes.h"
ARM GAS  C:\Users\Miriam\AppData\Local\Temp\ccrkoeGt.s 			page 5


 139              		.file 3 "<built-in>"